
 Start  Stop   Length Name               Class

 00000H 003CEH 003CFH _TEXT              CODE
 003CFH 014C0H 010F2H TEST_LL_TEXT       CODE
 014C1H 014FBH 0003BH IOERROR_TEXT       CODE
 014FCH 0152FH 00034H EXIT_TEXT          CODE
 01530H 01530H 00000H STKLEN_TEXT        CODE
 01530H 0155EH 0002FH ATEXIT_TEXT        CODE
 0155FH 0186EH 00310H FMALLOC_TEXT       CODE
 0186FH 019D6H 00168H FBRK_TEXT          CODE
 019D7H 019F6H 00020H SETBLOCK_TEXT      CODE
 019F7H 019F7H 00000H FILES_TEXT         CODE
 019F7H 019F7H 00000H FILES2_TEXT        CODE
 019F7H 01B5CH 00166H WRITE_TEXT         CODE
 01B5DH 01BA8H 0004CH WRITEA_TEXT        CODE
 01BA9H 01BD5H 0002DH LSEEK_TEXT         CODE
 01BD6H 01CD1H 000FCH LTOA_TEXT          CODE
 01CD2H 01D16H 00045H MEMSET_TEXT        CODE
 01D17H 01DFEH 000E8H FFLUSH_TEXT        CODE
 01DFFH 01E22H 00024H PRINTF_TEXT        CODE
 01E23H 0209CH 0027AH PUTC_TEXT          CODE
 0209DH 02610H 00574H VPRINTER_TEXT      CODE
 02611H 02937H 00327H FFREE_TEXT         CODE
 02938H 029A3H 0006CH CALLOC_TEXT        CODE
 029B0H 03055H 006A6H _DATA              DATA
 03056H 03059H 00004H _EMUSEG            DATA
 0305AH 0305BH 00002H _CRTSEG            DATA
 0305CH 0305FH 00004H _CVTSEG            DATA
 03060H 0306BH 0000CH _SCNSEG            DATA
 0306CH 030EBH 00080H _BSS               BSS
 030ECH 030ECH 00000H _BSSEND            STACK
 030F0H 031D5H 000E6H _STACK             STACK

Detailed map of segments

0000:0000 01C9 C=CODE S=_TEXT G=(none) M=C0L ACBP=28
0000:01C9 0106 C=CODE S=_TEXT G=(none) M=SETARGV ACBP=28
0000:02CF 0044 C=CODE S=_TEXT G=(none) M=SETENVP ACBP=28
0000:0313 005B C=CODE S=_TEXT G=(none) M=PADD ACBP=28
0000:036E 0021 C=CODE S=_TEXT G=(none) M=PCMP ACBP=28
0000:038F 0019 C=CODE S=_TEXT G=(none) M=LXMUL ACBP=28
0000:03A8 0023 C=CODE S=_TEXT G=(none) M=CVTFAK ACBP=28
0000:03CB 0004 C=CODE S=_TEXT G=(none) M=REALCVT ACBP=28
003C:000F 10F2 C=CODE S=TEST_LL_TEXT G=(none) M=test_ll.c ACBP=28
014C:0001 003B C=CODE S=IOERROR_TEXT G=(none) M=IOERROR ACBP=28
014F:000C 0034 C=CODE S=EXIT_TEXT G=(none) M=EXIT ACBP=28
0153:0000 0000 C=CODE S=STKLEN_TEXT G=(none) M=STKLEN ACBP=28
0153:0000 002F C=CODE S=ATEXIT_TEXT G=(none) M=ATEXIT ACBP=28
0155:000F 0310 C=CODE S=FMALLOC_TEXT G=(none) M=FMALLOC ACBP=28
0186:000F 0168 C=CODE S=FBRK_TEXT G=(none) M=FBRK ACBP=28
019D:0007 0020 C=CODE S=SETBLOCK_TEXT G=(none) M=SETBLOCK ACBP=28
019F:0007 0000 C=CODE S=FILES_TEXT G=(none) M=FILES ACBP=28
019F:0007 0000 C=CODE S=FILES2_TEXT G=(none) M=FILES2 ACBP=28
019F:0007 0166 C=CODE S=WRITE_TEXT G=(none) M=WRITE ACBP=28
01B5:000D 004C C=CODE S=WRITEA_TEXT G=(none) M=WRITEA ACBP=28
01BA:0009 002D C=CODE S=LSEEK_TEXT G=(none) M=LSEEK ACBP=28
01BD:0006 00FC C=CODE S=LTOA_TEXT G=(none) M=LTOA ACBP=28
01CD:0002 0045 C=CODE S=MEMSET_TEXT G=(none) M=MEMSET ACBP=28
01D1:0007 00E8 C=CODE S=FFLUSH_TEXT G=(none) M=FFLUSH ACBP=28
01DF:000F 0024 C=CODE S=PRINTF_TEXT G=(none) M=PRINTF ACBP=28
01E2:0003 027A C=CODE S=PUTC_TEXT G=(none) M=PUTC ACBP=28
0209:000D 0574 C=CODE S=VPRINTER_TEXT G=(none) M=VPRINTER ACBP=28
0261:0001 0327 C=CODE S=FFREE_TEXT G=(none) M=FFREE ACBP=28
0293:0008 006C C=CODE S=CALLOC_TEXT G=(none) M=CALLOC ACBP=28
029B:0000 0093 C=DATA S=_DATA G=DGROUP M=C0L ACBP=68
029B:0094 0334 C=DATA S=_DATA G=DGROUP M=test_ll.c ACBP=48
029B:03C8 005B C=DATA S=_DATA G=DGROUP M=IOERROR ACBP=48
029B:0424 000C C=DATA S=_DATA G=DGROUP M=EXIT ACBP=48
029B:0430 0000 C=DATA S=_DATA G=DGROUP M=SETARGV ACBP=48
029B:0430 0000 C=DATA S=_DATA G=DGROUP M=SETENVP ACBP=48
029B:0430 0002 C=DATA S=_DATA G=DGROUP M=STKLEN ACBP=48
029B:0432 0002 C=DATA S=_DATA G=DGROUP M=ATEXIT ACBP=48
029B:0434 000C C=DATA S=_DATA G=DGROUP M=FMALLOC ACBP=48
029B:0440 0002 C=DATA S=_DATA G=DGROUP M=FBRK ACBP=48
029B:0442 0000 C=DATA S=_DATA G=DGROUP M=SETBLOCK ACBP=48
029B:0442 0190 C=DATA S=_DATA G=DGROUP M=FILES ACBP=48
029B:05D2 0028 C=DATA S=_DATA G=DGROUP M=FILES2 ACBP=48
029B:05FA 0000 C=DATA S=_DATA G=DGROUP M=WRITE ACBP=48
029B:05FA 0000 C=DATA S=_DATA G=DGROUP M=WRITEA ACBP=48
029B:05FA 0000 C=DATA S=_DATA G=DGROUP M=LSEEK ACBP=48
029B:05FA 0000 C=DATA S=_DATA G=DGROUP M=LTOA ACBP=48
029B:05FA 0000 C=DATA S=_DATA G=DGROUP M=MEMSET ACBP=48
029B:05FA 0031 C=DATA S=_DATA G=DGROUP M=CVTFAK ACBP=48
029B:062C 0000 C=DATA S=_DATA G=DGROUP M=FFLUSH ACBP=48
029B:062C 0000 C=DATA S=_DATA G=DGROUP M=PRINTF ACBP=48
029B:062C 0001 C=DATA S=_DATA G=DGROUP M=PUTC ACBP=48
029B:062E 0077 C=DATA S=_DATA G=DGROUP M=VPRINTER ACBP=48
029B:06A6 0000 C=DATA S=_DATA G=DGROUP M=FFREE ACBP=48
029B:06A6 0000 C=DATA S=_DATA G=DGROUP M=CALLOC ACBP=48
0305:0006 0004 C=DATA S=_EMUSEG G=DGROUP M=C0L ACBP=58
0305:000A 0002 C=DATA S=_CRTSEG G=DGROUP M=C0L ACBP=58
0305:000C 0000 C=DATA S=_CVTSEG G=DGROUP M=C0L ACBP=48
0305:000C 0004 C=DATA S=_CVTSEG G=(none) M=CVTFAK ACBP=48
0305:0010 0000 C=DATA S=_CVTSEG G=DGROUP M=REALCVT ACBP=48
0306:0000 0000 C=DATA S=_SCNSEG G=DGROUP M=C0L ACBP=48
0306:0000 000C C=DATA S=_SCNSEG G=(none) M=CVTFAK ACBP=48
0306:000C 0000 C=BSS S=_BSS G=DGROUP M=C0L ACBP=48
0306:000C 0000 C=BSS S=_BSS G=DGROUP M=test_ll.c ACBP=48
0306:000C 0000 C=BSS S=_BSS G=DGROUP M=IOERROR ACBP=48
0306:000C 0000 C=BSS S=_BSS G=DGROUP M=EXIT ACBP=48
0306:000C 0000 C=BSS S=_BSS G=DGROUP M=STKLEN ACBP=48
0306:000C 0080 C=BSS S=_BSS G=DGROUP M=ATEXIT ACBP=48
0306:008C 0000 C=BSS S=_BSS G=DGROUP M=FMALLOC ACBP=48
0306:008C 0000 C=BSS S=_BSS G=DGROUP M=FBRK ACBP=48
0306:008C 0000 C=BSS S=_BSS G=DGROUP M=SETBLOCK ACBP=48
0306:008C 0000 C=BSS S=_BSS G=DGROUP M=FILES ACBP=48
0306:008C 0000 C=BSS S=_BSS G=DGROUP M=FILES2 ACBP=48
0306:008C 0000 C=BSS S=_BSS G=DGROUP M=WRITE ACBP=48
0306:008C 0000 C=BSS S=_BSS G=DGROUP M=WRITEA ACBP=48
0306:008C 0000 C=BSS S=_BSS G=DGROUP M=LSEEK ACBP=48
0306:008C 0000 C=BSS S=_BSS G=DGROUP M=LTOA ACBP=48
0306:008C 0000 C=BSS S=_BSS G=DGROUP M=MEMSET ACBP=48
0306:008C 0000 C=BSS S=_BSS G=DGROUP M=FFLUSH ACBP=48
0306:008C 0000 C=BSS S=_BSS G=DGROUP M=PRINTF ACBP=48
0306:008C 0000 C=BSS S=_BSS G=DGROUP M=PUTC ACBP=48
0306:008C 0000 C=BSS S=_BSS G=DGROUP M=VPRINTER ACBP=48
0306:008C 0000 C=BSS S=_BSS G=DGROUP M=FFREE ACBP=48
0306:008C 0000 C=BSS S=_BSS G=DGROUP M=CALLOC ACBP=48
030E:000C 0000 C=STACK S=_BSSEND G=DGROUP M=C0L ACBP=28
030F:0000 00E6 C=STACK S=_STACK G=(none) M=C0L ACBP=74

  Address         Publics by Name

 0000:01C7       DGROUP@
 030F:00E6       emuTop@
 030F:00DA       emws_adjust
 030F:00DE       emws_BPsafe
 030F:00D6       emws_control
 030F:00DC       emws_fixSeg
 030F:00C0       emws_initialSP
 030F:0000       emws_limitSP
 030F:00D0       emws_nmiVector
 030F:00CC       emws_saveVector
 030F:00E0       emws_stamp
 030F:00D4       emws_status
 030F:00D8       emws_TOS
 030F:00E4       emws_version
 0000:038F       LXMUL@
 0000:0313       PADD@
 0000:036E       PCMP@
 0000:0340       PSUB@
 0000:01AF       _abort
 0153:0000       _atexit
 0293:0008       _calloc
 029B:0071       _environ
 029B:007F       _errno
 014F:000D       _exit
 0261:02DB       _farfree
 0155:0210       _farmalloc
 01D1:0007       _fflush
 01E2:0022       _fputc
 01E2:0169       _fputchar
 0261:0001       _free
 01BD:008A       _itoa
 003C:0296       _LinkList_addAt
 003C:01E2       _LinkList_addFirst
 003C:012D       _LinkList_addLast
 003C:008A       _LinkList_alloc
 003C:009C       _LinkList_clearList
 003C:00FF       _LinkList_free
 003C:039B       _LinkList_getAt
 003C:041C       _LinkList_getFirst
 003C:0449       _LinkList_getLast
 003C:07A0       _LinkList_listContains
 003C:0784       _LinkList_listSize
 003C:0477       _LinkList_removeAt
 003C:054F       _LinkList_removeFirst
 003C:05FB       _LinkList_removeLast
 003C:06AC       _LinkList_setAt
 01BA:0009       _lseek
 01BD:00D7       _ltoa
 003C:10A2       _main
 0155:000F       _malloc
 01CD:0028       _memset
 01DF:000F       _printf
 019D:0007       _setblock
 01CD:0002       _setmem
 029B:0094       _tests_run
 01BD:00B7       _ultoa
 019F:0007       _write
 029B:0081       __8087
 029B:006B       __argc
 029B:006D       __argv
 029B:0432       __atexitcnt
 029B:06BC       __atexittbl
 0186:009F       __brk
 029B:008B       __brklvl
 0000:0000  Abs  __cvtfak
 029B:03C8       __doserrno
 029B:03CA       __dosErrorToSV
 029B:0075       __envLng
 029B:0077       __envseg
 029B:0079       __envSize
 0000:010D       __exit
 029B:0424       __exitbuf
 029B:0428       __exitfopen
 029B:042C       __exitopen
 029B:0434       __first
 01E2:0003       __fputc
 01E2:0182       __FPUTN
 029B:0087       __heapbase
 029B:008F       __heaptop
 029B:005B       __Int0Vector
 029B:005F       __Int4Vector
 029B:0063       __Int5Vector
 029B:0067       __Int6Vector
 014C:0001       __IOERROR
 029B:0438       __last
 01BD:0006       __LONGTOA
 029B:05D2       __openfd
 029B:007D       __osmajor
 029B:007E       __osminor
 029B:007B       __psp
 0155:0024       __pull_free_block
 0000:03CB       __REALCVT
 029B:06AC       __RealCvtVector
 0000:0172       __restorezero
 029B:043C       __rover
 0186:00E6       __sbrk
 029B:06B0       __ScanTodVector
 0000:01D1       __setargv
 0000:02CF       __setenvp
 029B:0083       __StartTime
 029B:0430       __stklen
 029B:0442       __streams
 029B:007D       __version
 0209:0038       __VPRINTER
 01B5:000D       __write

  Address         Publics by Value

 0000:0000  Abs  __cvtfak
 0000:010D       __exit
 0000:0172       __restorezero
 0000:01AF       _abort
 0000:01C7       DGROUP@
 0000:01D1       __setargv
 0000:02CF       __setenvp
 0000:0313       PADD@
 0000:0340       PSUB@
 0000:036E       PCMP@
 0000:038F       LXMUL@
 0000:03CB       __REALCVT
 003C:008A       _LinkList_alloc
 003C:009C       _LinkList_clearList
 003C:00FF       _LinkList_free
 003C:012D       _LinkList_addLast
 003C:01E2       _LinkList_addFirst
 003C:0296       _LinkList_addAt
 003C:039B       _LinkList_getAt
 003C:041C       _LinkList_getFirst
 003C:0449       _LinkList_getLast
 003C:0477       _LinkList_removeAt
 003C:054F       _LinkList_removeFirst
 003C:05FB       _LinkList_removeLast
 003C:06AC       _LinkList_setAt
 003C:0784       _LinkList_listSize
 003C:07A0       _LinkList_listContains
 003C:10A2       _main
 014C:0001       __IOERROR
 014F:000D       _exit
 0153:0000       _atexit
 0155:000F       _malloc
 0155:0024       __pull_free_block
 0155:0210       _farmalloc
 0186:009F       __brk
 0186:00E6       __sbrk
 019D:0007       _setblock
 019F:0007       _write
 01B5:000D       __write
 01BA:0009       _lseek
 01BD:0006       __LONGTOA
 01BD:008A       _itoa
 01BD:00B7       _ultoa
 01BD:00D7       _ltoa
 01CD:0002       _setmem
 01CD:0028       _memset
 01D1:0007       _fflush
 01DF:000F       _printf
 01E2:0003       __fputc
 01E2:0022       _fputc
 01E2:0169       _fputchar
 01E2:0182       __FPUTN
 0209:0038       __VPRINTER
 0261:0001       _free
 0261:02DB       _farfree
 0293:0008       _calloc
 029B:005B       __Int0Vector
 029B:005F       __Int4Vector
 029B:0063       __Int5Vector
 029B:0067       __Int6Vector
 029B:006B       __argc
 029B:006D       __argv
 029B:0071       _environ
 029B:0075       __envLng
 029B:0077       __envseg
 029B:0079       __envSize
 029B:007B       __psp
 029B:007D       __version
 029B:007D       __osmajor
 029B:007E       __osminor
 029B:007F       _errno
 029B:0081       __8087
 029B:0083       __StartTime
 029B:0087       __heapbase
 029B:008B       __brklvl
 029B:008F       __heaptop
 029B:0094       _tests_run
 029B:03C8       __doserrno
 029B:03CA       __dosErrorToSV
 029B:0424       __exitbuf
 029B:0428       __exitfopen
 029B:042C       __exitopen
 029B:0430       __stklen
 029B:0432       __atexitcnt
 029B:0434       __first
 029B:0438       __last
 029B:043C       __rover
 029B:0442       __streams
 029B:05D2       __openfd
 029B:06AC       __RealCvtVector
 029B:06B0       __ScanTodVector
 029B:06BC       __atexittbl
 030F:0000       emws_limitSP
 030F:00C0       emws_initialSP
 030F:00CC       emws_saveVector
 030F:00D0       emws_nmiVector
 030F:00D4       emws_status
 030F:00D6       emws_control
 030F:00D8       emws_TOS
 030F:00DA       emws_adjust
 030F:00DC       emws_fixSeg
 030F:00DE       emws_BPsafe
 030F:00E0       emws_stamp
 030F:00E4       emws_version
 030F:00E6       emuTop@

Line numbers for test\obj\tEST_LL.obj(TEST_LL.C) segment TEST_LL_TEXT

    20 003C:000F    24 003C:0016    25 003C:0028    28 003C:002E
    29 003C:003B    32 003C:0041    33 003C:0043    35 003C:004F
    36 003C:0057    40 003C:005F    41 003C:006B    39 003C:006C
    44 003C:007D    45 003C:0085    47 003C:008A    48 003C:008A
    49 003C:009B    51 003C:009C    54 003C:00A2    58 003C:00B6
    60 003C:00C2    61 003C:00CA    62 003C:00D3    63 003C:00DF
    64 003C:00EC    66 003C:00F3    67 003C:00FB    69 003C:00FF
    70 003C:0102    71 003C:010A    74 003C:010E    75 003C:011A
    77 003C:0127    78 003C:012B    80 003C:012D    83 003C:0133
    87 003C:013E    88 003C:0153    91 003C:015E    93 003C:016F
    94 003C:0179    95 003C:018F    96 003C:01A3    97 003C:01B4
    99 003C:01B6   100 003C:01C6   103 003C:01D7   104 003C:01DE
   106 003C:01E2   109 003C:01E8   113 003C:01F3   114 003C:0208
   117 003C:0213   119 003C:0224   120 003C:0230   121 003C:0244
   122 003C:0258   123 003C:0268   125 003C:026A   126 003C:027A
   129 003C:028B   130 003C:0292   132 003C:0296   135 003C:02A0
   139 003C:02AB   143 003C:02BA   144 003C:02CF   147 003C:02DA
   149 003C:02EB   150 003C:02EF   151 003C:02FB   152 003C:02FD
   153 003C:0309   154 003C:0316   156 003C:0318   159 003C:032C
   160 003C:0342   161 003C:0356   162 003C:036A   164 003C:037B
   165 003C:037F   168 003C:038F   169 003C:0396   171 003C:039B
   172 003C:03A2   173 003C:03B4   176 003C:03BA   177 003C:03C6
   180 003C:03CC   181 003C:03D0   184 003C:03E0   185 003C:03EC
   188 003C:03FD   189 003C:0419   191 003C:041C   192 003C:041F
   193 003C:0431   196 003C:0437   197 003C:0447   199 003C:0449
   200 003C:044C   201 003C:045E   204 003C:0464   205 003C:0475
   207 003C:0477   211 003C:0481   212 003C:0493   215 003C:049A
   216 003C:04A6   219 003C:04AD   220 003C:04B1   223 003C:04C1
   224 003C:04CD   227 003C:04DC   228 003C:04F0   229 003C:0508
   231 003C:0521   232 003C:052E   234 003C:053B   236 003C:0542
   237 003C:054A   239 003C:054F   243 003C:0555   244 003C:0567
   247 003C:056E   248 003C:057A   249 003C:0586   250 003C:059D
   251 003C:05AF   253 003C:05B1   254 003C:05BF   257 003C:05CE
   258 003C:05DB   260 003C:05E8   262 003C:05EF   263 003C:05F7
   265 003C:05FB   269 003C:0601   270 003C:0613   273 003C:061A
   274 003C:0627   275 003C:0634   276 003C:064E   277 003C:0660
   279 003C:0662   280 003C:0671   283 003C:067F   284 003C:068C
   286 003C:0699   288 003C:06A0   289 003C:06A8   291 003C:06AC
   295 003C:06B6   296 003C:06D4   299 003C:06DB   300 003C:06DF
   301 003C:06EF   302 003C:0703   305 003C:070B   306 003C:0717
   307 003C:0728   308 003C:073D   311 003C:0745   312 003C:0759
   313 003C:0766   314 003C:0777   315 003C:077F   317 003C:0784
   318 003C:0787   319 003C:0791   322 003C:0795   323 003C:079E
   326 003C:07A0   328 003C:07A7   330 003C:07A9   331 003C:07BB
   334 003C:07C0   336 003C:07CC   337 003C:07E1   340 003C:07E5
   341 003C:07E6   342 003C:07F2   344 003C:07FE   345 003C:0803
     7 003C:0808     8 003C:080F     9 003C:0814    10 003C:081E
    11 003C:0830    12 003C:0843    13 003C:084F    14 003C:085D
    15 003C:0863    17 003C:0868    18 003C:0870    19 003C:087A
    20 003C:0884    21 003C:0896    22 003C:08A8    23 003C:08BB
    24 003C:08CE    25 003C:08DA    26 003C:08ED    27 003C:08F3
    29 003C:08F9    30 003C:0901    31 003C:090B    32 003C:0915
    33 003C:0927    34 003C:0939    35 003C:094C    36 003C:095F
    37 003C:096B    38 003C:097E    39 003C:0984    41 003C:098A
    42 003C:0991    43 003C:09A0    44 003C:09AA    45 003C:09BC
    46 003C:09CE    47 003C:09E4    48 003C:09FC    49 003C:0A08
    50 003C:0A14    51 003C:0A1A    53 003C:0A1F    54 003C:0A26
    55 003C:0A35    56 003C:0A3F    57 003C:0A51    58 003C:0A63
    59 003C:0A75    60 003C:0A86    61 003C:0A9E    62 003C:0AAA
    63 003C:0AB6    64 003C:0ABC    66 003C:0AC1    67 003C:0AC8
    68 003C:0AD7    69 003C:0AE1    70 003C:0AF3    71 003C:0B05
    72 003C:0B17    73 003C:0B23    74 003C:0B3A    75 003C:0B46
    76 003C:0B52    77 003C:0B58    79 003C:0B5D    80 003C:0B64
    81 003C:0B73    82 003C:0B7D    83 003C:0B8F    84 003C:0BA1
    85 003C:0BB3    86 003C:0BBF    87 003C:0BD2    88 003C:0BDE
    89 003C:0BEA    90 003C:0BF0    92 003C:0BF5    93 003C:0BFC
    94 003C:0C10    95 003C:0C1A    96 003C:0C2C    97 003C:0C3E
    98 003C:0C50    99 003C:0C66   100 003C:0C7E   101 003C:0C8A
   102 003C:0C96   103 003C:0C9C   105 003C:0CA1   106 003C:0CA8
   107 003C:0CAF   108 003C:0CB9   109 003C:0CCB   110 003C:0CDD
   111 003C:0CEF   112 003C:0D01   113 003C:0D13   114 003C:0D25
   115 003C:0D37   116 003C:0D49   117 003C:0D57   118 003C:0D63
   119 003C:0D6F   120 003C:0D75   122 003C:0D7A   123 003C:0D81
   124 003C:0D88   125 003C:0D92   126 003C:0DA4   127 003C:0DB6
   128 003C:0DC8   129 003C:0DDA   130 003C:0DEC   131 003C:0DFE
   132 003C:0E10   133 003C:0E22   134 003C:0E2E   135 003C:0E3C
   136 003C:0E48   137 003C:0E53   138 003C:0E59   140 003C:0E5E
   141 003C:0E65   142 003C:0E8F   143 003C:0E99   144 003C:0EAB
   145 003C:0EBD   146 003C:0ECF   147 003C:0EE1   148 003C:0EF3
   149 003C:0F05   150 003C:0F17   151 003C:0F29   152 003C:0F3D
   153 003C:0F49   154 003C:0F55   155 003C:0F5B   157 003C:0F60
   158 003C:0F66   159 003C:0F85   160 003C:0FA4   161 003C:0FC3
   162 003C:0FE2   163 003C:1001   164 003C:1020   165 003C:103E
   166 003C:105C   167 003C:107A   168 003C:1098   169 003C:109E
   171 003C:10A2   172 003C:10A8   173 003C:10B2   174 003C:10BA
   175 003C:10CD   177 003C:10CF   180 003C:10DB   182 003C:10EC
   183 003C:10FD
Program entry point at 0000:0000

